target datalayout = "e-m:e-p270:32:32-p271:32:32-p272:64:64-i64:64-i128:128-f80:128-n8:16:32:64-S128"
target triple = "x86_64-pc-linux-gnu"

%struct.archive_string = type { ptr, i64, i64 }
%struct.archive_write_filter = type { i64, ptr, ptr, ptr, ptr, ptr, ptr, ptr, ptr, ptr, ptr, i32, i32, i32, i32 }
%struct.private_uuencode = type { i32, %struct.archive_string, %struct.archive_string, i64, i64, [45 x i8] }

; Function Attrs: nounwind uwtable
define internal i32 @archive_filter_uuencode_free(ptr noundef %0) #0 {
  %2 = alloca ptr, align 8
  %3 = alloca ptr, align 8
  store ptr %0, ptr %2, align 8, !tbaa !11
  call void @llvm.lifetime.start.p0(i64 8, ptr %3) #7
  %4 = load ptr, ptr %2, align 8, !tbaa !11
  %5 = getelementptr inbounds nuw %struct.archive_write_filter, ptr %4, i32 0, i32 9
  %6 = load ptr, ptr %5, align 8, !tbaa !25
  store ptr %6, ptr %3, align 8, !tbaa !15
  %7 = load ptr, ptr %3, align 8, !tbaa !15
  %8 = getelementptr inbounds nuw %struct.private_uuencode, ptr %7, i32 0, i32 1
  call void @archive_string_free(ptr noundef %8)
  %9 = load ptr, ptr %3, align 8, !tbaa !15
  %10 = getelementptr inbounds nuw %struct.private_uuencode, ptr %9, i32 0, i32 2
  call void @archive_string_free(ptr noundef %10)
  %11 = load ptr, ptr %3, align 8, !tbaa !15
  call void @free(ptr noundef %11) #7
  call void @llvm.lifetime.end.p0(i64 8, ptr %3) #7
  ret i32 0
}