; Function Attrs: nounwind uwtable
define internal noundef i32 @archive_filter_uuencode_free(ptr noundef readonly captures(none) %0) #0 {
  %2 = getelementptr inbounds nuw i8, ptr %0, i64 72
  %3 = load ptr, ptr %2, align 8, !tbaa !17
  %4 = getelementptr inbounds nuw i8, ptr %3, i64 8
  tail call void @archive_string_free(ptr noundef nonnull %4) #6
  %5 = getelementptr inbounds nuw i8, ptr %3, i64 32
  tail call void @archive_string_free(ptr noundef nonnull %5) #6
  tail call void @free(ptr noundef %3) #6
  ret i32 0
}